; Function Attrs: mustprogress nofree norecurse nosync nounwind memory(argmem: readwrite) uwtable
define void @_ZN5faiss26fvec_inner_products_ny_refEPfPKfS2_mm(ptr noundef writeonly captures(none) %0, ptr noundef readonly captures(none) %1, ptr noundef readonly captures(none) %2, i64 noundef %3, i64 noundef %4) local_unnamed_addr #2 {
  %.not = icmp eq i64 %4, 0
  br i1 %.not, label %._crit_edge, label %.lr.ph

.lr.ph:                                           ; preds = %5
  %.not9.i = icmp eq i64 %3, 0
  br i1 %.not9.i, label %_ZN5faiss18fvec_inner_productEPKfS1_m.exit.us.preheader, label %.lr.ph.i.preheader.preheader

.lr.ph.i.preheader.preheader:                     ; preds = %.lr.ph
  %min.iters.check = icmp ult i64 %3, 8
  %n.vec = and i64 %3, -8
  %cmp.n = icmp eq i64 %3, %n.vec
  br label %.lr.ph.i.preheader

_ZN5faiss18fvec_inner_productEPKfS1_m.exit.us.preheader: ; preds = %.lr.ph
  %6 = shl nuw i64 %4, 2
  tail call void @llvm.memset.p0.i64(ptr align 4 %0, i8 0, i64 %6, i1 false), !tbaa !4
  br label %._crit_edge

._crit_edge:                                      ; preds = %_ZN5faiss18fvec_inner_productEPKfS1_m.exit.loopexit, %_ZN5faiss18fvec_inner_productEPKfS1_m.exit.us.preheader, %5
  ret void

.lr.ph.i.preheader:                               ; preds = %.lr.ph.i.preheader.preheader, %_ZN5faiss18fvec_inner_productEPKfS1_m.exit.loopexit
  %.011 = phi i64 [ %26, %_ZN5faiss18fvec_inner_productEPKfS1_m.exit.loopexit ], [ 0, %.lr.ph.i.preheader.preheader ]
  %.0910 = phi ptr [ %25, %_ZN5faiss18fvec_inner_productEPKfS1_m.exit.loopexit ], [ %2, %.lr.ph.i.preheader.preheader ]
  br i1 %min.iters.check, label %.lr.ph.i.preheader17, label %vector.body

vector.body:                                      ; preds = %.lr.ph.i.preheader, %vector.body
  %index = phi i64 [ %index.next, %vector.body ], [ 0, %.lr.ph.i.preheader ]
  %vec.phi = phi <4 x float> [ %13, %vector.body ], [ zeroinitializer, %.lr.ph.i.preheader ]
  %vec.phi13 = phi <4 x float> [ %14, %vector.body ], [ zeroinitializer, %.lr.ph.i.preheader ]
  %7 = getelementptr inbounds nuw float, ptr %1, i64 %index
  %8 = getelementptr inbounds nuw i8, ptr %7, i64 16
  %wide.load = load <4 x float>, ptr %7, align 4, !tbaa !4
  %wide.load14 = load <4 x float>, ptr %8, align 4, !tbaa !4
  %9 = getelementptr inbounds nuw float, ptr %.0910, i64 %index
  %10 = getelementptr inbounds nuw i8, ptr %9, i64 16
  %wide.load15 = load <4 x float>, ptr %9, align 4, !tbaa !4
  %wide.load16 = load <4 x float>, ptr %10, align 4, !tbaa !4
  %11 = fmul fast <4 x float> %wide.load15, %wide.load
  %12 = fmul fast <4 x float> %wide.load16, %wide.load14
  %13 = fadd fast <4 x float> %11, %vec.phi
  %14 = fadd fast <4 x float> %12, %vec.phi13
  %index.next = add nuw i64 %index, 8
  %15 = icmp eq i64 %index.next, %n.vec
  br i1 %15, label %middle.block, label %vector.body, !llvm.loop !27

middle.block:                                     ; preds = %vector.body
  %bin.rdx = fadd fast <4 x float> %14, %13
  %16 = tail call fast float @llvm.vector.reduce.fadd.v4f32(float 0.000000e+00, <4 x float> %bin.rdx)
  br i1 %cmp.n, label %_ZN5faiss18fvec_inner_productEPKfS1_m.exit.loopexit, label %.lr.ph.i.preheader17

.lr.ph.i.preheader17:                             ; preds = %.lr.ph.i.preheader, %middle.block
  %.011.i.ph = phi i64 [ 0, %.lr.ph.i.preheader ], [ %n.vec, %middle.block ]
  %.0810.i.ph = phi float [ 0.000000e+00, %.lr.ph.i.preheader ], [ %16, %middle.block ]
  br label %.lr.ph.i

.lr.ph.i:                                         ; preds = %.lr.ph.i.preheader17, %.lr.ph.i
  %.011.i = phi i64 [ %23, %.lr.ph.i ], [ %.011.i.ph, %.lr.ph.i.preheader17 ]
  %.0810.i = phi float [ %22, %.lr.ph.i ], [ %.0810.i.ph, %.lr.ph.i.preheader17 ]
  %17 = getelementptr inbounds nuw float, ptr %1, i64 %.011.i
  %18 = load float, ptr %17, align 4, !tbaa !4
  %19 = getelementptr inbounds nuw float, ptr %.0910, i64 %.011.i
  %20 = load float, ptr %19, align 4, !tbaa !4
  %21 = fmul fast float %20, %18
  %22 = fadd fast float %21, %.0810.i
  %23 = add nuw i64 %.011.i, 1
  %.not.i = icmp eq i64 %23, %3
  br i1 %.not.i, label %_ZN5faiss18fvec_inner_productEPKfS1_m.exit.loopexit, label %.lr.ph.i, !llvm.loop !28

_ZN5faiss18fvec_inner_productEPKfS1_m.exit.loopexit: ; preds = %.lr.ph.i, %middle.block
  %.lcssa = phi float [ %16, %middle.block ], [ %22, %.lr.ph.i ]
  %24 = getelementptr inbounds nuw float, ptr %0, i64 %.011
  store float %.lcssa, ptr %24, align 4, !tbaa !4
  %25 = getelementptr inbounds nuw float, ptr %.0910, i64 %3
  %26 = add nuw i64 %.011, 1
  %exitcond.not = icmp eq i64 %26, %4
  br i1 %exitcond.not, label %._crit_edge, label %.lr.ph.i.preheader, !llvm.loop !29
}